
pwmix.elf:     file format elf32-avr

Sections:
Idx Name          Size      VMA       LMA       File off  Algn
  0 .text         00000150  00000000  00000000  00000074  2**1
                  CONTENTS, ALLOC, LOAD, READONLY, CODE
  1 .data         00000000  00800060  00800060  000001c4  2**0
                  CONTENTS, ALLOC, LOAD, DATA
  2 .bss          00000006  00800060  00800060  000001c4  2**0
                  ALLOC
  3 .comment      00000030  00000000  00000000  000001c4  2**0
                  CONTENTS, READONLY
  4 .note.gnu.avr.deviceinfo 0000003c  00000000  00000000  000001f4  2**2
                  CONTENTS, READONLY
  5 .debug_aranges 00000030  00000000  00000000  00000230  2**0
                  CONTENTS, READONLY, DEBUGGING
  6 .debug_info   00000123  00000000  00000000  00000260  2**0
                  CONTENTS, READONLY, DEBUGGING
  7 .debug_abbrev 000000be  00000000  00000000  00000383  2**0
                  CONTENTS, READONLY, DEBUGGING
  8 .debug_line   00000189  00000000  00000000  00000441  2**0
                  CONTENTS, READONLY, DEBUGGING
  9 .debug_frame  0000009c  00000000  00000000  000005cc  2**2
                  CONTENTS, READONLY, DEBUGGING
 10 .debug_str    00000188  00000000  00000000  00000668  2**0
                  CONTENTS, READONLY, DEBUGGING
 11 .debug_loc    00000136  00000000  00000000  000007f0  2**0
                  CONTENTS, READONLY, DEBUGGING
 12 .debug_ranges 00000020  00000000  00000000  00000926  2**0
                  CONTENTS, READONLY, DEBUGGING

Disassembly of section .text:

00000000 <__vectors>:
   0:	0e c0       	rjmp	.+28     	; 0x1e <__ctors_end>
   2:	1d c0       	rjmp	.+58     	; 0x3e <__bad_interrupt>
   4:	1c c0       	rjmp	.+56     	; 0x3e <__bad_interrupt>
   6:	1b c0       	rjmp	.+54     	; 0x3e <__bad_interrupt>
   8:	1a c0       	rjmp	.+52     	; 0x3e <__bad_interrupt>
   a:	19 c0       	rjmp	.+50     	; 0x3e <__bad_interrupt>
   c:	18 c0       	rjmp	.+48     	; 0x3e <__bad_interrupt>
   e:	17 c0       	rjmp	.+46     	; 0x3e <__bad_interrupt>
  10:	16 c0       	rjmp	.+44     	; 0x3e <__bad_interrupt>
  12:	15 c0       	rjmp	.+42     	; 0x3e <__bad_interrupt>
  14:	15 c0       	rjmp	.+42     	; 0x40 <__vector_10>
  16:	13 c0       	rjmp	.+38     	; 0x3e <__bad_interrupt>
  18:	12 c0       	rjmp	.+36     	; 0x3e <__bad_interrupt>
  1a:	11 c0       	rjmp	.+34     	; 0x3e <__bad_interrupt>
  1c:	10 c0       	rjmp	.+32     	; 0x3e <__bad_interrupt>

0000001e <__ctors_end>:
  1e:	11 24       	eor	r1, r1
  20:	1f be       	out	0x3f, r1	; 63
  22:	cf e5       	ldi	r28, 0x5F	; 95
  24:	d2 e0       	ldi	r29, 0x02	; 2
  26:	de bf       	out	0x3e, r29	; 62
  28:	cd bf       	out	0x3d, r28	; 61

0000002a <__do_clear_bss>:
  2a:	20 e0       	ldi	r18, 0x00	; 0
  2c:	a0 e6       	ldi	r26, 0x60	; 96
  2e:	b0 e0       	ldi	r27, 0x00	; 0
  30:	01 c0       	rjmp	.+2      	; 0x34 <.do_clear_bss_start>

00000032 <.do_clear_bss_loop>:
  32:	1d 92       	st	X+, r1

00000034 <.do_clear_bss_start>:
  34:	a6 36       	cpi	r26, 0x66	; 102
  36:	b2 07       	cpc	r27, r18
  38:	e1 f7       	brne	.-8      	; 0x32 <.do_clear_bss_loop>
  3a:	87 d0       	rcall	.+270    	; 0x14a <main>
  3c:	87 c0       	rjmp	.+270    	; 0x14c <_exit>

0000003e <__bad_interrupt>:
  3e:	e0 cf       	rjmp	.-64     	; 0x0 <__vectors>

00000040 <__vector_10>:
	TCCR0A = _BV(WGM01); //Enable CTC on timer 0
	TCCR0B = _BV(CS01); //Set prescaler to 8
	OCR0A = 20; //Set to overflow on 10uS
	TIMSK = _BV(OCIE0A); //interrupt on compare match
	
	sei();
  40:	1f 92       	push	r1
  42:	0f 92       	push	r0
  44:	0f b6       	in	r0, 0x3f	; 63
  46:	0f 92       	push	r0
  48:	11 24       	eor	r1, r1
  4a:	1f 93       	push	r17
  4c:	2f 93       	push	r18
  4e:	3f 93       	push	r19
  50:	4f 93       	push	r20
  52:	5f 93       	push	r21
  54:	6f 93       	push	r22
  56:	7f 93       	push	r23
  58:	8f 93       	push	r24
  5a:	9f 93       	push	r25
  5c:	af 93       	push	r26
  5e:	bf 93       	push	r27
  60:	cf 93       	push	r28
  62:	df 93       	push	r29
  64:	ef 93       	push	r30
  66:	ff 93       	push	r31
  68:	51 e0       	ldi	r21, 0x01	; 1
  6a:	80 e0       	ldi	r24, 0x00	; 0
  6c:	90 e0       	ldi	r25, 0x00	; 0
  6e:	c1 e0       	ldi	r28, 0x01	; 1
  70:	18 e0       	ldi	r17, 0x08	; 8
  72:	d0 e0       	ldi	r29, 0x00	; 0
  74:	b0 e1       	ldi	r27, 0x10	; 16
  76:	a0 e0       	ldi	r26, 0x00	; 0
  78:	02 c0       	rjmp	.+4      	; 0x7e <__vector_10+0x3e>
  7a:	01 96       	adiw	r24, 0x01	; 1
  7c:	5f 5f       	subi	r21, 0xFF	; 255
  7e:	9c 01       	movw	r18, r24
  80:	fc 01       	movw	r30, r24
  82:	ec 59       	subi	r30, 0x9C	; 156
  84:	ff 4f       	sbci	r31, 0xFF	; 255
  86:	40 81       	ld	r20, Z
  88:	44 23       	and	r20, r20
  8a:	19 f0       	breq	.+6      	; 0x92 <__vector_10+0x52>
  8c:	41 30       	cpi	r20, 0x01	; 1
  8e:	81 f0       	breq	.+32     	; 0xb0 <__vector_10+0x70>
  90:	41 c0       	rjmp	.+130    	; 0x114 <__vector_10+0xd4>
  92:	46 b3       	in	r20, 0x16	; 22
  94:	88 23       	and	r24, r24
  96:	09 f4       	brne	.+2      	; 0x9a <__vector_10+0x5a>
  98:	41 c0       	rjmp	.+130    	; 0x11c <__vector_10+0xdc>
  9a:	44 ff       	sbrs	r20, 4
  9c:	3b c0       	rjmp	.+118    	; 0x114 <__vector_10+0xd4>
  9e:	f9 01       	movw	r30, r18
  a0:	ec 59       	subi	r30, 0x9C	; 156
  a2:	ff 4f       	sbci	r31, 0xFF	; 255
  a4:	c0 83       	st	Z, r28
  a6:	f9 01       	movw	r30, r18
  a8:	ee 59       	subi	r30, 0x9E	; 158
  aa:	ff 4f       	sbci	r31, 0xFF	; 255
  ac:	10 82       	st	Z, r1
  ae:	32 c0       	rjmp	.+100    	; 0x114 <__vector_10+0xd4>
  b0:	66 b3       	in	r22, 0x16	; 22
  b2:	70 e0       	ldi	r23, 0x00	; 0
  b4:	88 23       	and	r24, r24
  b6:	19 f0       	breq	.+6      	; 0xbe <__vector_10+0x7e>
  b8:	eb 2f       	mov	r30, r27
  ba:	fa 2f       	mov	r31, r26
  bc:	02 c0       	rjmp	.+4      	; 0xc2 <__vector_10+0x82>
  be:	e1 2f       	mov	r30, r17
  c0:	fd 2f       	mov	r31, r29
  c2:	6e 23       	and	r22, r30
  c4:	7f 23       	and	r23, r31
  c6:	67 2b       	or	r22, r23
  c8:	69 f0       	breq	.+26     	; 0xe4 <__vector_10+0xa4>
  ca:	f9 01       	movw	r30, r18
  cc:	ee 59       	subi	r30, 0x9E	; 158
  ce:	ff 4f       	sbci	r31, 0xFF	; 255
  d0:	40 81       	ld	r20, Z
  d2:	43 3d       	cpi	r20, 0xD3	; 211
  d4:	f8 f4       	brcc	.+62     	; 0x114 <__vector_10+0xd4>
  d6:	f9 01       	movw	r30, r18
  d8:	ee 59       	subi	r30, 0x9E	; 158
  da:	ff 4f       	sbci	r31, 0xFF	; 255
  dc:	30 81       	ld	r19, Z
  de:	3f 5f       	subi	r19, 0xFF	; 255
  e0:	30 83       	st	Z, r19
  e2:	18 c0       	rjmp	.+48     	; 0x114 <__vector_10+0xd4>
  e4:	f9 01       	movw	r30, r18
  e6:	ee 59       	subi	r30, 0x9E	; 158
  e8:	ff 4f       	sbci	r31, 0xFF	; 255
  ea:	40 81       	ld	r20, Z
  ec:	43 3d       	cpi	r20, 0xD3	; 211
  ee:	70 f4       	brcc	.+28     	; 0x10c <__vector_10+0xcc>
  f0:	f9 01       	movw	r30, r18
  f2:	ee 59       	subi	r30, 0x9E	; 158
  f4:	ff 4f       	sbci	r31, 0xFF	; 255
  f6:	40 81       	ld	r20, Z
  f8:	4a 35       	cpi	r20, 0x5A	; 90
  fa:	40 f0       	brcs	.+16     	; 0x10c <__vector_10+0xcc>
  fc:	f9 01       	movw	r30, r18
  fe:	ee 59       	subi	r30, 0x9E	; 158
 100:	ff 4f       	sbci	r31, 0xFF	; 255
 102:	40 81       	ld	r20, Z
 104:	f9 01       	movw	r30, r18
 106:	e0 5a       	subi	r30, 0xA0	; 160
 108:	ff 4f       	sbci	r31, 0xFF	; 255
 10a:	40 83       	st	Z, r20
 10c:	f9 01       	movw	r30, r18
 10e:	ec 59       	subi	r30, 0x9C	; 156
 110:	ff 4f       	sbci	r31, 0xFF	; 255
 112:	10 82       	st	Z, r1
 114:	52 30       	cpi	r21, 0x02	; 2
 116:	08 f4       	brcc	.+2      	; 0x11a <__vector_10+0xda>
 118:	b0 cf       	rjmp	.-160    	; 0x7a <__vector_10+0x3a>
 11a:	03 c0       	rjmp	.+6      	; 0x122 <__vector_10+0xe2>
 11c:	43 fd       	sbrc	r20, 3
 11e:	bf cf       	rjmp	.-130    	; 0x9e <__vector_10+0x5e>
 120:	ac cf       	rjmp	.-168    	; 0x7a <__vector_10+0x3a>
 122:	ff 91       	pop	r31
 124:	ef 91       	pop	r30
 126:	df 91       	pop	r29
 128:	cf 91       	pop	r28
 12a:	bf 91       	pop	r27
 12c:	af 91       	pop	r26
 12e:	9f 91       	pop	r25
 130:	8f 91       	pop	r24
 132:	7f 91       	pop	r23
 134:	6f 91       	pop	r22
 136:	5f 91       	pop	r21
 138:	4f 91       	pop	r20
 13a:	3f 91       	pop	r19
 13c:	2f 91       	pop	r18
 13e:	1f 91       	pop	r17
 140:	0f 90       	pop	r0
 142:	0f be       	out	0x3f, r0	; 63
 144:	0f 90       	pop	r0
 146:	1f 90       	pop	r1
 148:	18 95       	reti

0000014a <main>:

int main(void){

    while(1){

	}
 14a:	ff cf       	rjmp	.-2      	; 0x14a <main>

0000014c <_exit>:
 14c:	f8 94       	cli

0000014e <__stop_program>:
 14e:	ff cf       	rjmp	.-2      	; 0x14e <__stop_program>
